SF:/home/efe/Repositories/Haven-App/haven-core/src/api.rs
FN:56,_RNvMNtCse4acRM52xEK_10haven_core3apiNtB2_9HavenCore10initialize
FN:26,_RNvMNtCse4acRM52xEK_10haven_core3apiNtB2_9HavenCore3new
FN:90,_RNvNtNtCse4acRM52xEK_10haven_core3api5testss_26debug_trait_implementation
FN:79,_RNvNtNtCse4acRM52xEK_10haven_core3api5testss_32initialize_sets_initialized_flag
FN:67,_RNvNtNtCse4acRM52xEK_10haven_core3api5testss_32new_creates_initialized_instance
FN:73,_RNvNtNtCse4acRM52xEK_10haven_core3api5testss_38default_creates_uninitialized_instance
FN:98,_RNvNtNtCse4acRM52xEK_10haven_core3api5testss_40multiple_initialize_calls_are_idempotent
FNDA:3,_RNvMNtCse4acRM52xEK_10haven_core3apiNtB2_9HavenCore10initialize
FNDA:2,_RNvMNtCse4acRM52xEK_10haven_core3apiNtB2_9HavenCore3new
FNDA:1,_RNvNtNtCse4acRM52xEK_10haven_core3api5testss_26debug_trait_implementation
FNDA:1,_RNvNtNtCse4acRM52xEK_10haven_core3api5testss_32initialize_sets_initialized_flag
FNDA:1,_RNvNtNtCse4acRM52xEK_10haven_core3api5testss_32new_creates_initialized_instance
FNDA:1,_RNvNtNtCse4acRM52xEK_10haven_core3api5testss_38default_creates_uninitialized_instance
FNDA:1,_RNvNtNtCse4acRM52xEK_10haven_core3api5testss_40multiple_initialize_calls_are_idempotent
FNF:7
FNH:7
DA:26,2
DA:27,2
DA:28,2
DA:56,3
DA:57,3
DA:58,3
DA:59,3
DA:67,1
DA:68,1
DA:69,1
DA:70,1
DA:73,1
DA:74,1
DA:75,1
DA:76,1
DA:79,1
DA:80,1
DA:81,1
DA:83,1
DA:85,1
DA:86,1
DA:87,1
DA:90,1
DA:91,1
DA:92,1
DA:93,1
DA:94,1
DA:95,1
DA:98,1
DA:99,1
DA:100,1
DA:101,1
DA:102,1
DA:103,1
BRF:0
BRH:0
LF:34
LH:34
end_of_record
SF:/home/efe/Repositories/Haven-App/haven-core/src/frb_generated/mod.rs
FN:339,_RNvXsa_NtCse4acRM52xEK_10haven_core13frb_generatedNtNtB7_3api9HavenCoreNtB5_9SseEncode10sse_encode
FN:371,_RNvXse_NtCse4acRM52xEK_10haven_core13frb_generatedINtNtCsgag4BwXrjBQ_5alloc3vec3VechENtB5_9SseEncode10sse_encode
FN:357,_RNvXsc_NtCse4acRM52xEK_10haven_core13frb_generatedNtNtCsgag4BwXrjBQ_5alloc6string6StringNtB5_9SseEncode10sse_encode
FN:201,_RNCNCNCNvNtCse4acRM52xEK_10haven_core13frb_generated36wire__crate__api__HavenCore_new_impl000B9_
FN:73,_RNCNCNCNvNtCse4acRM52xEK_10haven_core13frb_generated40wire__crate__api__HavenCore_default_impl000B9_
FN:108,_RNCNCNCNvNtCse4acRM52xEK_10haven_core13frb_generated43wire__crate__api__HavenCore_initialize_impl000B9_
FN:200,_RNCNCNvNtCse4acRM52xEK_10haven_core13frb_generated36wire__crate__api__HavenCore_new_impl00B7_
FN:72,_RNCNCNvNtCse4acRM52xEK_10haven_core13frb_generated40wire__crate__api__HavenCore_default_impl00B7_
FN:107,_RNCNCNvNtCse4acRM52xEK_10haven_core13frb_generated43wire__crate__api__HavenCore_initialize_impl00B7_
FN:155,_RNCNCNvNtCse4acRM52xEK_10haven_core13frb_generated47wire__crate__api__HavenCore_is_initialized_impl00B7_
FN:189,_RNCNvNtCse4acRM52xEK_10haven_core13frb_generated36wire__crate__api__HavenCore_new_impl0B5_
FN:61,_RNCNvNtCse4acRM52xEK_10haven_core13frb_generated40wire__crate__api__HavenCore_default_impl0B5_
FN:93,_RNCNvNtCse4acRM52xEK_10haven_core13frb_generated43wire__crate__api__HavenCore_initialize_impl0B5_
FN:141,_RNCNvNtCse4acRM52xEK_10haven_core13frb_generated47wire__crate__api__HavenCore_is_initialized_impl0B5_
FN:220,_RNvXNtCse4acRM52xEK_10haven_core13frb_generatedNtNtB4_3api9HavenCoreNtB2_9SseDecode10sse_decode
FN:240,_RNvXs0_NtCse4acRM52xEK_10haven_core13frb_generatedNtNtCsgag4BwXrjBQ_5alloc6string6StringNtB5_9SseDecode10sse_decode
FN:248,_RNvXs1_NtCse4acRM52xEK_10haven_core13frb_generatedbNtB5_9SseDecode10sse_decode
FN:255,_RNvXs2_NtCse4acRM52xEK_10haven_core13frb_generatedINtNtCsgag4BwXrjBQ_5alloc3vec3VechENtB5_9SseDecode10sse_decode
FN:267,_RNvXs3_NtCse4acRM52xEK_10haven_core13frb_generatedhNtB5_9SseDecode10sse_decode
FN:274,_RNvXs4_NtCse4acRM52xEK_10haven_core13frb_generateduNtB5_9SseDecode10sse_decode
FN:286,_RNvXs6_NtCse4acRM52xEK_10haven_core13frb_generatedlNtB5_9SseDecode10sse_decode
FN:324,_RNvXs7_NtCse4acRM52xEK_10haven_core13frb_generatedINtB5_10FrbWrapperNtNtB7_3api9HavenCoreENtNtCslz2Z4VKWjCo_12allo_isolate9into_dart8IntoDart9into_dart
FN:332,_RNvXs9_NtCse4acRM52xEK_10haven_core13frb_generatedNtNtB7_3api9HavenCoreINtNtNtCs5ZmkdCphVki_19flutter_rust_bridge4misc14into_into_dart12IntoIntoDartINtB5_10FrbWrapperBM_EE14into_into_dart
FN:307,_RNvNtCse4acRM52xEK_10haven_core13frb_generated28pde_ffi_dispatcher_sync_impl
FN:291,_RNvNtCse4acRM52xEK_10haven_core13frb_generated31pde_ffi_dispatcher_primary_impl
FN:177,_RNvNtCse4acRM52xEK_10haven_core13frb_generated36wire__crate__api__HavenCore_new_impl
FN:49,_RNvNtCse4acRM52xEK_10haven_core13frb_generated40wire__crate__api__HavenCore_default_impl
FN:81,_RNvNtCse4acRM52xEK_10haven_core13frb_generated43wire__crate__api__HavenCore_initialize_impl
FN:130,_RNvNtCse4acRM52xEK_10haven_core13frb_generated47wire__crate__api__HavenCore_is_initialized_impl
FN:279,_RNvXs5_NtCse4acRM52xEK_10haven_core13frb_generatedjNtB5_9SseDecode10sse_decode
FN:364,_RNvXsd_NtCse4acRM52xEK_10haven_core13frb_generatedbNtB5_9SseEncode10sse_encode
FN:381,_RNvXsf_NtCse4acRM52xEK_10haven_core13frb_generatedhNtB5_9SseEncode10sse_encode
FN:388,_RNvXsg_NtCse4acRM52xEK_10haven_core13frb_generateduNtB5_9SseEncode10sse_encode
FN:393,_RNvXsh_NtCse4acRM52xEK_10haven_core13frb_generatedjNtB5_9SseEncode10sse_encode
FN:403,_RNvXsi_NtCse4acRM52xEK_10haven_core13frb_generatedlNtB5_9SseEncode10sse_encode
FN:232,_RNvXs_NtCse4acRM52xEK_10haven_core13frb_generatedINtNtCs5ZmkdCphVki_19flutter_rust_bridge11rust_opaque14RustOpaqueBaseINtNtNtBQ_16rust_auto_opaque5inner19RustAutoOpaqueInnerNtNtB6_3api9HavenCoreEINtB4_6MoiArcB1S_EENtB4_9SseDecode10sse_decode
FN:348,_RNvXsb_NtCse4acRM52xEK_10haven_core13frb_generatedINtNtCs5ZmkdCphVki_19flutter_rust_bridge11rust_opaque14RustOpaqueBaseINtNtNtBR_16rust_auto_opaque5inner19RustAutoOpaqueInnerNtNtB7_3api9HavenCoreEINtB5_6MoiArcB1T_EENtB5_9SseEncode10sse_encode
FN:435,frbgen_haven_rust_arc_decrement_strong_count_RustOpaque_flutter_rust_bridgefor_generatedRustAutoOpaqueInnerHavenCore
FN:428,frbgen_haven_rust_arc_increment_strong_count_RustOpaque_flutter_rust_bridgefor_generatedRustAutoOpaqueInnerHavenCore
FNDA:0,_RNvXsa_NtCse4acRM52xEK_10haven_core13frb_generatedNtNtB7_3api9HavenCoreNtB5_9SseEncode10sse_encode
FNDA:0,_RNvXse_NtCse4acRM52xEK_10haven_core13frb_generatedINtNtCsgag4BwXrjBQ_5alloc3vec3VechENtB5_9SseEncode10sse_encode
FNDA:0,_RNvXsc_NtCse4acRM52xEK_10haven_core13frb_generatedNtNtCsgag4BwXrjBQ_5alloc6string6StringNtB5_9SseEncode10sse_encode
FNDA:0,_RNCNCNCNvNtCse4acRM52xEK_10haven_core13frb_generated36wire__crate__api__HavenCore_new_impl000B9_
FNDA:0,_RNCNCNCNvNtCse4acRM52xEK_10haven_core13frb_generated40wire__crate__api__HavenCore_default_impl000B9_
FNDA:0,_RNCNCNCNvNtCse4acRM52xEK_10haven_core13frb_generated43wire__crate__api__HavenCore_initialize_impl000B9_
FNDA:0,_RNCNCNvNtCse4acRM52xEK_10haven_core13frb_generated36wire__crate__api__HavenCore_new_impl00B7_
FNDA:0,_RNCNCNvNtCse4acRM52xEK_10haven_core13frb_generated40wire__crate__api__HavenCore_default_impl00B7_
FNDA:0,_RNCNCNvNtCse4acRM52xEK_10haven_core13frb_generated43wire__crate__api__HavenCore_initialize_impl00B7_
FNDA:0,_RNCNCNvNtCse4acRM52xEK_10haven_core13frb_generated47wire__crate__api__HavenCore_is_initialized_impl00B7_
FNDA:0,_RNCNvNtCse4acRM52xEK_10haven_core13frb_generated36wire__crate__api__HavenCore_new_impl0B5_
FNDA:0,_RNCNvNtCse4acRM52xEK_10haven_core13frb_generated40wire__crate__api__HavenCore_default_impl0B5_
FNDA:0,_RNCNvNtCse4acRM52xEK_10haven_core13frb_generated43wire__crate__api__HavenCore_initialize_impl0B5_
FNDA:0,_RNCNvNtCse4acRM52xEK_10haven_core13frb_generated47wire__crate__api__HavenCore_is_initialized_impl0B5_
FNDA:0,_RNvXNtCse4acRM52xEK_10haven_core13frb_generatedNtNtB4_3api9HavenCoreNtB2_9SseDecode10sse_decode
FNDA:0,_RNvXs0_NtCse4acRM52xEK_10haven_core13frb_generatedNtNtCsgag4BwXrjBQ_5alloc6string6StringNtB5_9SseDecode10sse_decode
FNDA:0,_RNvXs1_NtCse4acRM52xEK_10haven_core13frb_generatedbNtB5_9SseDecode10sse_decode
FNDA:0,_RNvXs2_NtCse4acRM52xEK_10haven_core13frb_generatedINtNtCsgag4BwXrjBQ_5alloc3vec3VechENtB5_9SseDecode10sse_decode
FNDA:0,_RNvXs3_NtCse4acRM52xEK_10haven_core13frb_generatedhNtB5_9SseDecode10sse_decode
FNDA:0,_RNvXs4_NtCse4acRM52xEK_10haven_core13frb_generateduNtB5_9SseDecode10sse_decode
FNDA:0,_RNvXs6_NtCse4acRM52xEK_10haven_core13frb_generatedlNtB5_9SseDecode10sse_decode
FNDA:0,_RNvXs7_NtCse4acRM52xEK_10haven_core13frb_generatedINtB5_10FrbWrapperNtNtB7_3api9HavenCoreENtNtCslz2Z4VKWjCo_12allo_isolate9into_dart8IntoDart9into_dart
FNDA:0,_RNvXs9_NtCse4acRM52xEK_10haven_core13frb_generatedNtNtB7_3api9HavenCoreINtNtNtCs5ZmkdCphVki_19flutter_rust_bridge4misc14into_into_dart12IntoIntoDartINtB5_10FrbWrapperBM_EE14into_into_dart
FNDA:0,_RNvNtCse4acRM52xEK_10haven_core13frb_generated28pde_ffi_dispatcher_sync_impl
FNDA:0,_RNvNtCse4acRM52xEK_10haven_core13frb_generated31pde_ffi_dispatcher_primary_impl
FNDA:0,_RNvNtCse4acRM52xEK_10haven_core13frb_generated36wire__crate__api__HavenCore_new_impl
FNDA:0,_RNvNtCse4acRM52xEK_10haven_core13frb_generated40wire__crate__api__HavenCore_default_impl
FNDA:0,_RNvNtCse4acRM52xEK_10haven_core13frb_generated43wire__crate__api__HavenCore_initialize_impl
FNDA:0,_RNvNtCse4acRM52xEK_10haven_core13frb_generated47wire__crate__api__HavenCore_is_initialized_impl
FNDA:0,_RNvXs5_NtCse4acRM52xEK_10haven_core13frb_generatedjNtB5_9SseDecode10sse_decode
FNDA:0,_RNvXsd_NtCse4acRM52xEK_10haven_core13frb_generatedbNtB5_9SseEncode10sse_encode
FNDA:0,_RNvXsf_NtCse4acRM52xEK_10haven_core13frb_generatedhNtB5_9SseEncode10sse_encode
FNDA:0,_RNvXsg_NtCse4acRM52xEK_10haven_core13frb_generateduNtB5_9SseEncode10sse_encode
FNDA:0,_RNvXsh_NtCse4acRM52xEK_10haven_core13frb_generatedjNtB5_9SseEncode10sse_encode
FNDA:0,_RNvXsi_NtCse4acRM52xEK_10haven_core13frb_generatedlNtB5_9SseEncode10sse_encode
FNDA:0,_RNvXs_NtCse4acRM52xEK_10haven_core13frb_generatedINtNtCs5ZmkdCphVki_19flutter_rust_bridge11rust_opaque14RustOpaqueBaseINtNtNtBQ_16rust_auto_opaque5inner19RustAutoOpaqueInnerNtNtB6_3api9HavenCoreEINtB4_6MoiArcB1S_EENtB4_9SseDecode10sse_decode
FNDA:0,_RNvXsb_NtCse4acRM52xEK_10haven_core13frb_generatedINtNtCs5ZmkdCphVki_19flutter_rust_bridge11rust_opaque14RustOpaqueBaseINtNtNtBR_16rust_auto_opaque5inner19RustAutoOpaqueInnerNtNtB7_3api9HavenCoreEINtB5_6MoiArcB1T_EENtB5_9SseEncode10sse_encode
FNDA:0,frbgen_haven_rust_arc_decrement_strong_count_RustOpaque_flutter_rust_bridgefor_generatedRustAutoOpaqueInnerHavenCore
FNDA:0,frbgen_haven_rust_arc_increment_strong_count_RustOpaque_flutter_rust_bridgefor_generatedRustAutoOpaqueInnerHavenCore
FNF:39
FNH:0
DA:49,0
DA:50,0
DA:51,0
DA:52,0
DA:53,0
DA:54,0
DA:55,0
DA:56,0
DA:57,0
DA:58,0
DA:59,0
DA:60,0
DA:61,0
DA:62,0
DA:63,0
DA:64,0
DA:65,0
DA:66,0
DA:69,0
DA:70,0
DA:71,0
DA:72,0
DA:73,0
DA:74,0
DA:75,0
DA:77,0
DA:78,0
DA:80,0
DA:81,0
DA:82,0
DA:83,0
DA:84,0
DA:85,0
DA:86,0
DA:87,0
DA:88,0
DA:89,0
DA:90,0
DA:91,0
DA:92,0
DA:93,0
DA:94,0
DA:95,0
DA:96,0
DA:97,0
DA:98,0
DA:101,0
DA:102,0
DA:103,0
DA:104,0
DA:105,0
DA:106,0
DA:107,0
DA:108,0
DA:109,0
DA:110,0
DA:111,0
DA:112,0
DA:113,0
DA:116,0
DA:117,0
DA:118,0
DA:119,0
DA:122,0
DA:123,0
DA:124,0
DA:126,0
DA:127,0
DA:129,0
DA:130,0
DA:131,0
DA:132,0
DA:133,0
DA:134,0
DA:135,0
DA:136,0
DA:137,0
DA:138,0
DA:139,0
DA:140,0
DA:141,0
DA:142,0
DA:143,0
DA:144,0
DA:145,0
DA:146,0
DA:149,0
DA:150,0
DA:151,0
DA:152,0
DA:153,0
DA:154,0
DA:155,0
DA:156,0
DA:157,0
DA:158,0
DA:159,0
DA:160,0
DA:163,0
DA:164,0
DA:165,0
DA:166,0
DA:169,0
DA:170,0
DA:171,0
DA:172,0
DA:174,0
DA:176,0
DA:177,0
DA:178,0
DA:179,0
DA:180,0
DA:181,0
DA:182,0
DA:183,0
DA:184,0
DA:185,0
DA:186,0
DA:187,0
DA:188,0
DA:189,0
DA:190,0
DA:191,0
DA:192,0
DA:193,0
DA:194,0
DA:197,0
DA:198,0
DA:199,0
DA:200,0
DA:201,0
DA:202,0
DA:203,0
DA:205,0
DA:206,0
DA:208,0
DA:220,0
DA:221,0
DA:222,0
DA:223,0
DA:224,0
DA:225,0
DA:232,0
DA:233,0
DA:234,0
DA:235,0
DA:240,0
DA:241,0
DA:242,0
DA:243,0
DA:248,0
DA:249,0
DA:250,0
DA:255,0
DA:256,0
DA:257,0
DA:258,0
DA:259,0
DA:260,0
DA:261,0
DA:262,0
DA:267,0
DA:268,0
DA:269,0
DA:274,0
DA:279,0
DA:280,0
DA:281,0
DA:286,0
DA:287,0
DA:288,0
DA:291,0
DA:292,0
DA:293,0
DA:294,0
DA:295,0
DA:296,0
DA:297,0
DA:299,0
DA:300,0
DA:301,0
DA:302,0
DA:303,0
DA:305,0
DA:307,0
DA:308,0
DA:309,0
DA:310,0
DA:311,0
DA:312,0
DA:314,0
DA:315,0
DA:316,0
DA:318,0
DA:324,0
DA:325,0
DA:326,0
DA:327,0
DA:332,0
DA:333,0
DA:334,0
DA:339,0
DA:340,0
DA:341,0
DA:348,0
DA:349,0
DA:350,0
DA:351,0
DA:352,0
DA:357,0
DA:358,0
DA:359,0
DA:364,0
DA:365,0
DA:366,0
DA:371,0
DA:372,0
DA:373,0
DA:374,0
DA:375,0
DA:376,0
DA:381,0
DA:382,0
DA:383,0
DA:388,0
DA:393,0
DA:394,0
DA:395,0
DA:396,0
DA:397,0
DA:398,0
DA:403,0
DA:404,0
DA:405,0
DA:428,0
DA:429,0
DA:430,0
DA:431,0
DA:432,0
DA:435,0
DA:436,0
DA:437,0
DA:438,0
DA:439,0
BRF:0
BRH:0
LF:248
LH:0
end_of_record
SF:/home/efe/Repositories/Haven-App/haven-core/src/location/nostr.rs
FN:95,_RNvMNtNtCse4acRM52xEK_10haven_core8location5nostrNtB2_20LocationEventBuilder20includes_geohash_tag
FN:89,_RNvMNtNtCse4acRM52xEK_10haven_core8location5nostrNtB2_20LocationEventBuilder21prepare_location_data
FN:55,_RNvMNtNtCse4acRM52xEK_10haven_core8location5nostrNtB2_20LocationEventBuilder3new
FN:101,_RNvXs_NtNtCse4acRM52xEK_10haven_core8location5nostrNtB4_20LocationEventBuilderNtNtCs3XFJfFEDSOQ_4core7default7Default7default
FN:90,_RNCNvMNtNtCse4acRM52xEK_10haven_core8location5nostrNtB4_20LocationEventBuilder21prepare_location_data0B8_
FN:137,_RNvNtNtNtCse4acRM52xEK_10haven_core8location5nostr5testss_29prepare_location_data_success
FN:119,_RNvNtNtNtCse4acRM52xEK_10haven_core8location5nostr5testss_30event_builder_new_with_geohash
FN:125,_RNvNtNtNtCse4acRM52xEK_10haven_core8location5nostr5testss_33event_builder_new_without_geohash
FN:131,_RNvNtNtNtCse4acRM52xEK_10haven_core8location5nostr5testss_35event_builder_default_privacy_first
FN:150,_RNvNtNtNtCse4acRM52xEK_10haven_core8location5nostr5testss_45prepare_location_data_excludes_private_fields
FNDA:3,_RNvMNtNtCse4acRM52xEK_10haven_core8location5nostrNtB2_20LocationEventBuilder20includes_geohash_tag
FNDA:2,_RNvMNtNtCse4acRM52xEK_10haven_core8location5nostrNtB2_20LocationEventBuilder21prepare_location_data
FNDA:5,_RNvMNtNtCse4acRM52xEK_10haven_core8location5nostrNtB2_20LocationEventBuilder3new
FNDA:1,_RNvXs_NtNtCse4acRM52xEK_10haven_core8location5nostrNtB4_20LocationEventBuilderNtNtCs3XFJfFEDSOQ_4core7default7Default7default
FNDA:0,_RNCNvMNtNtCse4acRM52xEK_10haven_core8location5nostrNtB4_20LocationEventBuilder21prepare_location_data0B8_
FNDA:1,_RNvNtNtNtCse4acRM52xEK_10haven_core8location5nostr5testss_29prepare_location_data_success
FNDA:1,_RNvNtNtNtCse4acRM52xEK_10haven_core8location5nostr5testss_30event_builder_new_with_geohash
FNDA:1,_RNvNtNtNtCse4acRM52xEK_10haven_core8location5nostr5testss_33event_builder_new_without_geohash
FNDA:1,_RNvNtNtNtCse4acRM52xEK_10haven_core8location5nostr5testss_35event_builder_default_privacy_first
FNDA:1,_RNvNtNtNtCse4acRM52xEK_10haven_core8location5nostr5testss_45prepare_location_data_excludes_private_fields
FNF:10
FNH:9
DA:55,5
DA:56,5
DA:57,5
DA:58,5
DA:59,5
DA:89,2
DA:90,2
DA:91,2
DA:95,3
DA:96,3
DA:97,3
DA:101,1
DA:102,1
DA:103,1
DA:119,1
DA:120,1
DA:121,1
DA:122,1
DA:125,1
DA:126,1
DA:127,1
DA:128,1
DA:131,1
DA:132,1
DA:133,1
DA:134,1
DA:137,1
DA:138,1
DA:139,1
DA:141,1
DA:143,1
DA:144,1
DA:145,1
DA:146,1
DA:147,1
DA:150,1
DA:151,1
DA:152,1
DA:153,1
DA:155,1
DA:156,1
DA:159,1
DA:160,1
DA:161,1
DA:162,1
BRF:0
BRH:0
LF:46
LH:45
end_of_record
SF:/home/efe/Repositories/Haven-App/haven-core/src/location/privacy.rs
FN:120,_RNCNvNtNtCse4acRM52xEK_10haven_core8location7privacy19geohash_to_location0B7_
FN:82,_RNCNvNtNtCse4acRM52xEK_10haven_core8location7privacy19location_to_geohash0B7_
FN:118,_RNvNtNtCse4acRM52xEK_10haven_core8location7privacy19geohash_to_location
FN:80,_RNvNtNtCse4acRM52xEK_10haven_core8location7privacy19location_to_geohash
FN:142,_RNvNtNtCse4acRM52xEK_10haven_core8location7privacy20geohash_error_radius
FN:38,_RNvNtNtCse4acRM52xEK_10haven_core8location7privacy20obfuscate_coordinate
FN:295,_RNCNvNtNtNtCse4acRM52xEK_10haven_core8location7privacy5testss_37geohash_nearby_locations_share_prefix0B9_
FN:214,_RNvNtNtNtCse4acRM52xEK_10haven_core8location7privacy5testss_17geohash_roundtrip
FN:195,_RNvNtNtNtCse4acRM52xEK_10haven_core8location7privacy5testss_19geohash_precision_8
FN:201,_RNvNtNtNtCse4acRM52xEK_10haven_core8location7privacy5testss_23geohash_decode_accuracy
FN:174,_RNvNtNtNtCse4acRM52xEK_10haven_core8location7privacy5testss_23obfuscate_to_2_decimals
FN:164,_RNvNtNtNtCse4acRM52xEK_10haven_core8location7privacy5testss_23obfuscate_to_4_decimals
FN:181,_RNvNtNtNtCse4acRM52xEK_10haven_core8location7privacy5testss_23obfuscate_to_5_decimals
FN:272,_RNvNtNtNtCse4acRM52xEK_10haven_core8location7privacy5testss_24obfuscate_maintains_sign
FN:251,_RNvNtNtNtCse4acRM52xEK_10haven_core8location7privacy5testss_25obfuscate_zero_coordinate
FN:257,_RNvNtNtNtCse4acRM52xEK_10haven_core8location7privacy5testss_26geohash_handles_edge_cases
FN:244,_RNvNtNtNtCse4acRM52xEK_10haven_core8location7privacy5testss_27geohash_error_radius_values
FN:229,_RNvNtNtNtCse4acRM52xEK_10haven_core8location7privacy5testss_28geohash_different_precisions
FN:188,_RNvNtNtNtCse4acRM52xEK_10haven_core8location7privacy5testss_28obfuscate_negative_longitude
FN:280,_RNvNtNtNtCse4acRM52xEK_10haven_core8location7privacy5testss_37geohash_nearby_locations_share_prefix
FNDA:2,_RNCNvNtNtCse4acRM52xEK_10haven_core8location7privacy19geohash_to_location0B7_
FNDA:0,_RNCNvNtNtCse4acRM52xEK_10haven_core8location7privacy19location_to_geohash0B7_
FNDA:2,_RNvNtNtCse4acRM52xEK_10haven_core8location7privacy19geohash_to_location
FNDA:21,_RNvNtNtCse4acRM52xEK_10haven_core8location7privacy19location_to_geohash
FNDA:3,_RNvNtNtCse4acRM52xEK_10haven_core8location7privacy20geohash_error_radius
FNDA:26,_RNvNtNtCse4acRM52xEK_10haven_core8location7privacy20obfuscate_coordinate
FNDA:7,_RNCNvNtNtNtCse4acRM52xEK_10haven_core8location7privacy5testss_37geohash_nearby_locations_share_prefix0B9_
FNDA:1,_RNvNtNtNtCse4acRM52xEK_10haven_core8location7privacy5testss_17geohash_roundtrip
FNDA:1,_RNvNtNtNtCse4acRM52xEK_10haven_core8location7privacy5testss_19geohash_precision_8
FNDA:1,_RNvNtNtNtCse4acRM52xEK_10haven_core8location7privacy5testss_23geohash_decode_accuracy
FNDA:1,_RNvNtNtNtCse4acRM52xEK_10haven_core8location7privacy5testss_23obfuscate_to_2_decimals
FNDA:1,_RNvNtNtNtCse4acRM52xEK_10haven_core8location7privacy5testss_23obfuscate_to_4_decimals
FNDA:1,_RNvNtNtNtCse4acRM52xEK_10haven_core8location7privacy5testss_23obfuscate_to_5_decimals
FNDA:1,_RNvNtNtNtCse4acRM52xEK_10haven_core8location7privacy5testss_24obfuscate_maintains_sign
FNDA:1,_RNvNtNtNtCse4acRM52xEK_10haven_core8location7privacy5testss_25obfuscate_zero_coordinate
FNDA:1,_RNvNtNtNtCse4acRM52xEK_10haven_core8location7privacy5testss_26geohash_handles_edge_cases
FNDA:1,_RNvNtNtNtCse4acRM52xEK_10haven_core8location7privacy5testss_27geohash_error_radius_values
FNDA:1,_RNvNtNtNtCse4acRM52xEK_10haven_core8location7privacy5testss_28geohash_different_precisions
FNDA:1,_RNvNtNtNtCse4acRM52xEK_10haven_core8location7privacy5testss_28obfuscate_negative_longitude
FNDA:1,_RNvNtNtNtCse4acRM52xEK_10haven_core8location7privacy5testss_37geohash_nearby_locations_share_prefix
FNF:20
FNH:19
DA:38,26
DA:39,26
DA:40,26
DA:41,26
DA:42,26
DA:80,21
DA:81,21
DA:82,21
DA:83,21
DA:118,2
DA:119,2
DA:120,2
DA:121,2
DA:122,2
DA:142,3
DA:144,3
DA:145,0
DA:146,0
DA:147,0
DA:148,0
DA:149,1
DA:150,0
DA:151,1
DA:152,1
DA:153,0
DA:154,0
DA:155,0
DA:157,3
DA:164,1
DA:165,1
DA:166,1
DA:167,1
DA:170,1
DA:171,1
DA:174,1
DA:175,1
DA:176,1
DA:177,1
DA:178,1
DA:181,1
DA:182,1
DA:183,1
DA:184,1
DA:185,1
DA:188,1
DA:189,1
DA:190,1
DA:191,1
DA:192,1
DA:195,1
DA:196,1
DA:197,1
DA:198,1
DA:201,1
DA:202,1
DA:203,1
DA:205,1
DA:206,1
DA:209,1
DA:210,1
DA:211,1
DA:214,1
DA:215,1
DA:216,1
DA:218,1
DA:219,1
DA:222,1
DA:225,1
DA:226,1
DA:229,1
DA:230,1
DA:231,1
DA:233,1
DA:234,1
DA:236,1
DA:237,1
DA:240,1
DA:241,1
DA:244,1
DA:245,1
DA:246,1
DA:247,1
DA:248,1
DA:251,1
DA:252,1
DA:253,1
DA:254,1
DA:257,1
DA:259,1
DA:260,1
DA:263,1
DA:264,1
DA:267,1
DA:268,1
DA:269,1
DA:272,1
DA:273,1
DA:274,1
DA:275,1
DA:276,1
DA:277,1
DA:280,1
DA:281,1
DA:282,1
DA:285,1
DA:286,1
DA:288,1
DA:289,1
DA:292,1
DA:293,1
DA:294,1
DA:295,7
DA:296,1
DA:298,1
DA:299,1
BRF:0
BRH:0
LF:118
LH:109
end_of_record
SF:/home/efe/Repositories/Haven-App/haven-core/src/location/types.rs
FN:32,_RNvMNtNtCse4acRM52xEK_10haven_core8location5typesNtB2_17LocationPrecision14decimal_places
FN:186,_RNvMs_NtNtCse4acRM52xEK_10haven_core8location5typesNtB4_15LocationMessage10is_expired
FN:154,_RNvMs_NtNtCse4acRM52xEK_10haven_core8location5typesNtB4_15LocationMessage14with_precision
FN:129,_RNvMs_NtNtCse4acRM52xEK_10haven_core8location5typesNtB4_15LocationMessage3new
FN:206,_RNvMs_NtNtCse4acRM52xEK_10haven_core8location5typesNtB4_15LocationMessage7to_json
FN:195,_RNvMs_NtNtCse4acRM52xEK_10haven_core8location5typesNtB4_15LocationMessage9from_json
FN:236,_RNvXs0_NtNtCse4acRM52xEK_10haven_core8location5typesNtB5_16LocationSettingsNtNtCs3XFJfFEDSOQ_4core7default7Default7default
FN:345,_RNvNtNtNtCse4acRM52xEK_10haven_core8location5types5testss_31location_message_roundtrip_json
FN:357,_RNvNtNtNtCse4acRM52xEK_10haven_core8location5types5testss_32location_settings_default_values
FN:250,_RNvNtNtNtCse4acRM52xEK_10haven_core8location5types5testss_33location_precision_decimal_places
FN:257,_RNvNtNtNtCse4acRM52xEK_10haven_core8location5types5testss_38location_precision_default_is_standard
FN:272,_RNvNtNtNtCse4acRM52xEK_10haven_core8location5types5testss_39location_message_with_precision_private
FN:285,_RNvNtNtNtCse4acRM52xEK_10haven_core8location5types5testss_40location_message_with_precision_enhanced
FN:298,_RNvNtNtNtCse4acRM52xEK_10haven_core8location5types5testss_41location_message_geohash_has_8_characters
FN:304,_RNvNtNtNtCse4acRM52xEK_10haven_core8location5types5testss_41location_message_not_expired_when_created
FN:318,_RNvNtNtNtCse4acRM52xEK_10haven_core8location5types5testss_45location_message_json_excludes_private_fields
FN:262,_RNvNtNtNtCse4acRM52xEK_10haven_core8location5types5testss_45location_message_new_obfuscates_to_4_decimals
FN:310,_RNvNtNtNtCse4acRM52xEK_10haven_core8location5types5testss_48location_message_is_expired_when_past_expiration
FNDA:29,_RNvMNtNtCse4acRM52xEK_10haven_core8location5typesNtB2_17LocationPrecision14decimal_places
FNDA:2,_RNvMs_NtNtCse4acRM52xEK_10haven_core8location5typesNtB4_15LocationMessage10is_expired
FNDA:10,_RNvMs_NtNtCse4acRM52xEK_10haven_core8location5typesNtB4_15LocationMessage14with_precision
FNDA:8,_RNvMs_NtNtCse4acRM52xEK_10haven_core8location5typesNtB4_15LocationMessage3new
FNDA:4,_RNvMs_NtNtCse4acRM52xEK_10haven_core8location5typesNtB4_15LocationMessage7to_json
FNDA:1,_RNvMs_NtNtCse4acRM52xEK_10haven_core8location5typesNtB4_15LocationMessage9from_json
FNDA:1,_RNvXs0_NtNtCse4acRM52xEK_10haven_core8location5typesNtB5_16LocationSettingsNtNtCs3XFJfFEDSOQ_4core7default7Default7default
FNDA:1,_RNvNtNtNtCse4acRM52xEK_10haven_core8location5types5testss_31location_message_roundtrip_json
FNDA:1,_RNvNtNtNtCse4acRM52xEK_10haven_core8location5types5testss_32location_settings_default_values
FNDA:1,_RNvNtNtNtCse4acRM52xEK_10haven_core8location5types5testss_33location_precision_decimal_places
FNDA:1,_RNvNtNtNtCse4acRM52xEK_10haven_core8location5types5testss_38location_precision_default_is_standard
FNDA:1,_RNvNtNtNtCse4acRM52xEK_10haven_core8location5types5testss_39location_message_with_precision_private
FNDA:1,_RNvNtNtNtCse4acRM52xEK_10haven_core8location5types5testss_40location_message_with_precision_enhanced
FNDA:1,_RNvNtNtNtCse4acRM52xEK_10haven_core8location5types5testss_41location_message_geohash_has_8_characters
FNDA:1,_RNvNtNtNtCse4acRM52xEK_10haven_core8location5types5testss_41location_message_not_expired_when_created
FNDA:1,_RNvNtNtNtCse4acRM52xEK_10haven_core8location5types5testss_45location_message_json_excludes_private_fields
FNDA:1,_RNvNtNtNtCse4acRM52xEK_10haven_core8location5types5testss_45location_message_new_obfuscates_to_4_decimals
FNDA:1,_RNvNtNtNtCse4acRM52xEK_10haven_core8location5types5testss_48location_message_is_expired_when_past_expiration
FNF:18
FNH:18
DA:32,29
DA:33,29
DA:34,4
DA:35,21
DA:36,4
DA:38,29
DA:129,8
DA:130,8
DA:131,8
DA:154,10
DA:157,10
DA:158,10
DA:160,10
DA:161,10
DA:162,10
DA:163,10
DA:164,10
DA:165,10
DA:166,10
DA:167,10
DA:168,10
DA:169,10
DA:170,10
DA:171,10
DA:172,10
DA:173,10
DA:186,2
DA:187,2
DA:188,2
DA:195,1
DA:196,1
DA:197,1
DA:206,4
DA:207,4
DA:208,4
DA:236,1
DA:237,1
DA:238,1
DA:239,1
DA:240,1
DA:241,1
DA:242,1
DA:250,1
DA:251,1
DA:252,1
DA:253,1
DA:254,1
DA:257,1
DA:258,1
DA:259,1
DA:262,1
DA:263,1
DA:266,1
DA:267,1
DA:268,1
DA:269,1
DA:272,1
DA:273,1
DA:276,1
DA:280,1
DA:281,1
DA:282,1
DA:285,1
DA:286,1
DA:289,1
DA:293,1
DA:294,1
DA:295,1
DA:298,1
DA:299,1
DA:300,1
DA:301,1
DA:304,1
DA:305,1
DA:306,1
DA:307,1
DA:310,1
DA:311,1
DA:313,1
DA:314,1
DA:315,1
DA:318,1
DA:319,1
DA:320,1
DA:321,1
DA:322,1
DA:323,1
DA:324,1
DA:326,1
DA:329,1
DA:330,1
DA:331,1
DA:332,1
DA:333,1
DA:334,1
DA:337,1
DA:338,1
DA:339,1
DA:340,1
DA:341,1
DA:342,1
DA:345,1
DA:346,1
DA:347,1
DA:348,1
DA:350,1
DA:351,1
DA:352,1
DA:353,1
DA:354,1
DA:357,1
DA:358,1
DA:360,1
DA:361,1
DA:362,1
DA:363,1
BRF:0
BRH:0
LF:116
LH:116
end_of_record